target datalayout = "e-m:e-p270:32:32-p271:32:32-p272:64:64-i64:64-i128:128-f80:128-n8:16:32:64-S128"
target triple = "x86_64-pc-linux-gnu"

%struct._value_string_ext = type { ptr, i32, i32, ptr, ptr }
%struct._packet_info = type { ptr, ptr, i32, i32, %struct.nstime_t, %struct.nstime_t, %struct.nstime_t, i8, ptr, ptr, ptr, ptr, %struct._address, %struct._address, %struct._address, %struct._address, %struct._address, %struct._address, i32, ptr, i8, [3 x i8], %struct.anon, i32, i32, i32, i32, ptr, i8, ptr, ptr, i16, i16, i32, i32, i16, i32, i32, ptr, ptr, ptr, i8, i8, i16, i16, i16, i32, i16, i16, ptr, ptr, ptr, ptr, ptr, i32, i32 }
%struct.nstime_t = type { i64, i32 }
%struct._address = type { i32, i32, ptr, ptr }
%struct.anon = type { i8, [3 x i8] }
%struct._proto_node = type { ptr, ptr, ptr, ptr, ptr, ptr, ptr }
%struct.field_info = type { ptr, i32, i32, i32, i32, i32, i32, ptr, ptr, ptr, i32, i32 }

@hf_nfs2_status = internal global i32 0, align 4
@names_nfs2_stat_ext = internal global %struct._value_string_ext { ptr @_try_val_to_str_ext_init, i32 0, i32 74, ptr @names_nfs2_stat, ptr @.str.1492 }, align 8
@hf_nfs_status = hidden global i32 0, align 4
@.str.2241 = private unnamed_addr constant [18 x i8] c"Unknown error: %u\00", align 1
@.str.2242 = private unnamed_addr constant [11 x i8] c" Error: %s\00", align 1
@.str.2281 = private unnamed_addr constant [14 x i8] c", RMDIR Reply\00", align 1
@.str.2282 = private unnamed_addr constant [25 x i8] c", RMDIR Reply  Error: %s\00", align 1

; Function Attrs: inlinehint nounwind null_pointer_is_valid sspstrong uwtable
define internal void @proto_item_set_hidden(ptr noundef %0) #8 {
  %2 = alloca ptr, align 8
  store ptr %0, ptr %2, align 8
  %3 = load ptr, ptr %2, align 8
  %4 = icmp ne ptr %3, null
  br i1 %4, label %5, label %24

5:                                                ; preds = %1
  br label %6

6:                                                ; preds = %5
  %7 = load ptr, ptr %2, align 8
  %8 = getelementptr inbounds nuw %struct._proto_node, ptr %7, i32 0, i32 5
  %9 = load ptr, ptr %8, align 8
  %10 = icmp ne ptr %9, null
  br i1 %10, label %11, label %22

11:                                               ; preds = %6
  %12 = load ptr, ptr %2, align 8
  %13 = getelementptr inbounds nuw %struct._proto_node, ptr %12, i32 0, i32 5
  %14 = load ptr, ptr %13, align 8
  %15 = getelementptr inbounds nuw %struct.field_info, ptr %14, i32 0, i32 6
  %16 = load i32, ptr %15, align 4
  %17 = or i32 %16, 1
  %18 = load ptr, ptr %2, align 8
  %19 = getelementptr inbounds nuw %struct._proto_node, ptr %18, i32 0, i32 5
  %20 = load ptr, ptr %19, align 8
  %21 = getelementptr inbounds nuw %struct.field_info, ptr %20, i32 0, i32 6
  store i32 %17, ptr %21, align 4
  br label %22

22:                                               ; preds = %11, %6
  br label %23

23:                                               ; preds = %22
  br label %24

24:                                               ; preds = %23, %1
  ret void
}

; Function Attrs: null_pointer_is_valid sspstrong uwtable
define internal i32 @dissect_nfs2_status(ptr noundef %0, i32 noundef %1, ptr noundef %2, ptr noundef %3) #0 {
  %5 = alloca ptr, align 8
  %6 = alloca i32, align 4
  %7 = alloca ptr, align 8
  %8 = alloca ptr, align 8
  %9 = alloca i32, align 4
  %10 = alloca ptr, align 8
  store ptr %0, ptr %5, align 8
  store i32 %1, ptr %6, align 4
  store ptr %2, ptr %7, align 8
  store ptr %3, ptr %8, align 8
  call void @llvm.lifetime.start.p0(i64 4, ptr %9) #16
  call void @llvm.lifetime.start.p0(i64 8, ptr %10) #16
  %11 = load ptr, ptr %7, align 8
  %12 = load i32, ptr @hf_nfs2_status, align 4
  %13 = load ptr, ptr %5, align 8
  %14 = load i32, ptr %6, align 4
  %15 = add i32 %14, 0
  %16 = call ptr @proto_tree_add_item_ret_uint(ptr noundef %11, i32 noundef %12, ptr noundef %13, i32 noundef %15, i32 noundef 4, i32 noundef 0, ptr noundef %9)
  %17 = load ptr, ptr %7, align 8
  %18 = load i32, ptr @hf_nfs_status, align 4
  %19 = load ptr, ptr %5, align 8
  %20 = load i32, ptr %6, align 4
  %21 = add i32 %20, 0
  %22 = load i32, ptr %9, align 4
  %23 = call ptr @proto_tree_add_uint(ptr noundef %17, i32 noundef %18, ptr noundef %19, i32 noundef %21, i32 noundef 4, i32 noundef %22)
  store ptr %23, ptr %10, align 8
  %24 = load ptr, ptr %10, align 8
  call void @proto_item_set_hidden(ptr noundef %24)
  %25 = load i32, ptr %6, align 4
  %26 = add i32 %25, 4
  store i32 %26, ptr %6, align 4
  %27 = load ptr, ptr %8, align 8
  %28 = icmp ne ptr %27, null
  br i1 %28, label %29, label %32

29:                                               ; preds = %4
  %30 = load i32, ptr %9, align 4
  %31 = load ptr, ptr %8, align 8
  store i32 %30, ptr %31, align 4
  br label %32

32:                                               ; preds = %29, %4
  %33 = load i32, ptr %6, align 4
  call void @llvm.lifetime.end.p0(i64 8, ptr %10) #16
  call void @llvm.lifetime.end.p0(i64 4, ptr %9) #16
  ret i32 %33
}

; Function Attrs: null_pointer_is_valid sspstrong uwtable
define internal i32 @dissect_nfs2_rmdir_reply(ptr noundef %0, ptr noundef %1, ptr noundef %2, ptr noundef %3) #0 {
  %5 = alloca ptr, align 8
  %6 = alloca ptr, align 8
  %7 = alloca ptr, align 8
  %8 = alloca ptr, align 8
  %9 = alloca i32, align 4
  %10 = alloca ptr, align 8
  %11 = alloca i32, align 4
  store ptr %0, ptr %5, align 8
  store ptr %1, ptr %6, align 8
  store ptr %2, ptr %7, align 8
  store ptr %3, ptr %8, align 8
  call void @llvm.lifetime.start.p0(i64 4, ptr %9) #16
  call void @llvm.lifetime.start.p0(i64 8, ptr %10) #16
  call void @llvm.lifetime.start.p0(i64 4, ptr %11) #16
  store i32 0, ptr %11, align 4
  %12 = load ptr, ptr %5, align 8
  %13 = load i32, ptr %11, align 4
  %14 = load ptr, ptr %7, align 8
  %15 = call i32 @dissect_nfs2_status(ptr noundef %12, i32 noundef %13, ptr noundef %14, ptr noundef %9)
  store i32 %15, ptr %11, align 4
  %16 = load i32, ptr %9, align 4
  switch i32 %16, label %19 [
    i32 0, label %17
  ]

17:                                               ; preds = %4
  %18 = load ptr, ptr %7, align 8
  call void (ptr, ptr, ...) @proto_item_append_text(ptr noundef %18, ptr noundef @.str.2281)
  br label %28

19:                                               ; preds = %4
  %20 = load i32, ptr %9, align 4
  %21 = call ptr @val_to_str_ext(i32 noundef %20, ptr noundef @names_nfs2_stat_ext, ptr noundef @.str.2241)
  store ptr %21, ptr %10, align 8
  %22 = load ptr, ptr %6, align 8
  %23 = getelementptr inbounds nuw %struct._packet_info, ptr %22, i32 0, i32 1
  %24 = load ptr, ptr %23, align 8
  %25 = load ptr, ptr %10, align 8
  call void (ptr, i32, ptr, ...) @col_append_fstr(ptr noundef %24, i32 noundef 25, ptr noundef @.str.2242, ptr noundef %25)
  %26 = load ptr, ptr %7, align 8
  %27 = load ptr, ptr %10, align 8
  call void (ptr, ptr, ...) @proto_item_append_text(ptr noundef %26, ptr noundef @.str.2282, ptr noundef %27)
  br label %28

28:                                               ; preds = %19, %17
  %29 = load i32, ptr %11, align 4
  call void @llvm.lifetime.end.p0(i64 4, ptr %11) #16
  call void @llvm.lifetime.end.p0(i64 8, ptr %10) #16
  call void @llvm.lifetime.end.p0(i64 4, ptr %9) #16
  ret i32 %29
}