; Function Attrs: null_pointer_is_valid sspstrong uwtable
define internal noundef i32 @dissect_nfs2_rmdir_reply(ptr noundef %0, ptr noundef readonly captures(none) %1, ptr noundef %2, ptr readnone captures(none) %3) #0 {
  %5 = alloca i32, align 4
  call void @llvm.lifetime.start.p0(i64 4, ptr nonnull %5) #22
  %6 = load i32, ptr @hf_nfs2_status, align 4
  %7 = call ptr @proto_tree_add_item_ret_uint(ptr noundef %2, i32 noundef %6, ptr noundef %0, i32 noundef 0, i32 noundef 4, i32 noundef 0, ptr noundef nonnull %5)
  %8 = load i32, ptr @hf_nfs_status, align 4
  %9 = load i32, ptr %5, align 4
  %10 = call ptr @proto_tree_add_uint(ptr noundef %2, i32 noundef %8, ptr noundef %0, i32 noundef 0, i32 noundef 4, i32 noundef %9)
  %.not.i.i = icmp eq ptr %10, null
  br i1 %.not.i.i, label %dissect_nfs2_status.exit, label %11

11:                                               ; preds = %4
  %12 = getelementptr inbounds nuw i8, ptr %10, i64 40
  %13 = load ptr, ptr %12, align 8
  %.not5.i.i = icmp eq ptr %13, null
  br i1 %.not5.i.i, label %dissect_nfs2_status.exit, label %14

14:                                               ; preds = %11
  %15 = getelementptr inbounds nuw i8, ptr %13, i64 28
  %16 = load i32, ptr %15, align 4
  %17 = or i32 %16, 1
  store i32 %17, ptr %15, align 4
  br label %dissect_nfs2_status.exit

dissect_nfs2_status.exit:                         ; preds = %4, %11, %14
  %18 = load i32, ptr %5, align 4
  call void @llvm.lifetime.end.p0(i64 4, ptr nonnull %5) #22
  %cond = icmp eq i32 %18, 0
  br i1 %cond, label %19, label %20

19:                                               ; preds = %dissect_nfs2_status.exit
  call void (ptr, ptr, ...) @proto_item_append_text(ptr noundef %2, ptr noundef nonnull @.str.2281)
  br label %24

20:                                               ; preds = %dissect_nfs2_status.exit
  %21 = call ptr @val_to_str_ext(i32 noundef %18, ptr noundef nonnull @names_nfs2_stat_ext, ptr noundef nonnull @.str.2241)
  %22 = getelementptr inbounds nuw i8, ptr %1, i64 8
  %23 = load ptr, ptr %22, align 8
  call void (ptr, i32, ptr, ...) @col_append_fstr(ptr noundef %23, i32 noundef 25, ptr noundef nonnull @.str.2242, ptr noundef %21)
  call void (ptr, ptr, ...) @proto_item_append_text(ptr noundef %2, ptr noundef nonnull @.str.2282, ptr noundef %21)
  br label %24

24:                                               ; preds = %20, %19
  ret i32 4
}